; ModuleID = '14/1256.c'
source_filename = "14/1256.c"
target datalayout = "e-m:e-p270:32:32-p271:32:32-p272:64:64-i64:64-f80:128-n8:16:32:64-S128"
target triple = "x86_64-pc-linux-gnu"

%struct.student = type { i32, i32, i32, i32 }

@.str = private unnamed_addr constant [3 x i8] c"%d\00", align 1
@.str.1 = private unnamed_addr constant [9 x i8] c"%d %d %d\00", align 1
@.str.2 = private unnamed_addr constant [7 x i8] c"%d %d\0A\00", align 1

; Function Attrs: noinline nounwind uwtable
define dso_local void @main() #0 {
  %1 = alloca i32, align 4
  %2 = alloca i32, align 4
  %3 = alloca i32, align 4
  %4 = alloca i32, align 4
  %5 = alloca [3 x [2 x i32]], align 16
  %6 = alloca i32, align 4
  %7 = alloca [100000 x %struct.student], align 16
  %8 = call i32 (i8*, ...) @__isoc99_scanf(i8* getelementptr inbounds ([3 x i8], [3 x i8]* @.str, i64 0, i64 0), i32* %4)
  store i32 0, i32* %1, align 4
  br label %9

9:                                                ; preds = %42, %0
  %10 = load i32, i32* %1, align 4
  %11 = load i32, i32* %4, align 4
  %12 = icmp slt i32 %10, %11
  br i1 %12, label %13, label %45

13:                                               ; preds = %9
  %14 = load i32, i32* %1, align 4
  %15 = sext i32 %14 to i64
  %16 = getelementptr inbounds [100000 x %struct.student], [100000 x %struct.student]* %7, i64 0, i64 %15
  %17 = getelementptr inbounds %struct.student, %struct.student* %16, i32 0, i32 0
  %18 = load i32, i32* %1, align 4
  %19 = sext i32 %18 to i64
  %20 = getelementptr inbounds [100000 x %struct.student], [100000 x %struct.student]* %7, i64 0, i64 %19
  %21 = getelementptr inbounds %struct.student, %struct.student* %20, i32 0, i32 1
  %22 = load i32, i32* %1, align 4
  %23 = sext i32 %22 to i64
  %24 = getelementptr inbounds [100000 x %struct.student], [100000 x %struct.student]* %7, i64 0, i64 %23
  %25 = getelementptr inbounds %struct.student, %struct.student* %24, i32 0, i32 2
  %26 = call i32 (i8*, ...) @__isoc99_scanf(i8* getelementptr inbounds ([9 x i8], [9 x i8]* @.str.1, i64 0, i64 0), i32* %17, i32* %21, i32* %25)
  %27 = load i32, i32* %1, align 4
  %28 = sext i32 %27 to i64
  %29 = getelementptr inbounds [100000 x %struct.student], [100000 x %struct.student]* %7, i64 0, i64 %28
  %30 = getelementptr inbounds %struct.student, %struct.student* %29, i32 0, i32 1
  %31 = load i32, i32* %30, align 4
  %32 = load i32, i32* %1, align 4
  %33 = sext i32 %32 to i64
  %34 = getelementptr inbounds [100000 x %struct.student], [100000 x %struct.student]* %7, i64 0, i64 %33
  %35 = getelementptr inbounds %struct.student, %struct.student* %34, i32 0, i32 2
  %36 = load i32, i32* %35, align 8
  %37 = add nsw i32 %31, %36
  %38 = load i32, i32* %1, align 4
  %39 = sext i32 %38 to i64
  %40 = getelementptr inbounds [100000 x %struct.student], [100000 x %struct.student]* %7, i64 0, i64 %39
  %41 = getelementptr inbounds %struct.student, %struct.student* %40, i32 0, i32 3
  store i32 %37, i32* %41, align 4
  br label %42

42:                                               ; preds = %13
  %43 = load i32, i32* %1, align 4
  %44 = add nsw i32 %43, 1
  store i32 %44, i32* %1, align 4
  br label %9

45:                                               ; preds = %9
  store i32 0, i32* %1, align 4
  br label %46

46:                                               ; preds = %88, %45
  %47 = load i32, i32* %1, align 4
  %48 = icmp slt i32 %47, 3
  br i1 %48, label %49, label %91

49:                                               ; preds = %46
  store i32 0, i32* %3, align 4
  store i32 0, i32* %2, align 4
  br label %50

50:                                               ; preds = %70, %49
  %51 = load i32, i32* %2, align 4
  %52 = load i32, i32* %4, align 4
  %53 = icmp slt i32 %51, %52
  br i1 %53, label %54, label %73

54:                                               ; preds = %50
  %55 = load i32, i32* %3, align 4
  %56 = load i32, i32* %2, align 4
  %57 = sext i32 %56 to i64
  %58 = getelementptr inbounds [100000 x %struct.student], [100000 x %struct.student]* %7, i64 0, i64 %57
  %59 = getelementptr inbounds %struct.student, %struct.student* %58, i32 0, i32 3
  %60 = load i32, i32* %59, align 4
  %61 = icmp slt i32 %55, %60
  br i1 %61, label %62, label %69

62:                                               ; preds = %54
  %63 = load i32, i32* %2, align 4
  %64 = sext i32 %63 to i64
  %65 = getelementptr inbounds [100000 x %struct.student], [100000 x %struct.student]* %7, i64 0, i64 %64
  %66 = getelementptr inbounds %struct.student, %struct.student* %65, i32 0, i32 3
  %67 = load i32, i32* %66, align 4
  store i32 %67, i32* %3, align 4
  %68 = load i32, i32* %2, align 4
  store i32 %68, i32* %6, align 4
  br label %69

69:                                               ; preds = %62, %54
  br label %70

70:                                               ; preds = %69
  %71 = load i32, i32* %2, align 4
  %72 = add nsw i32 %71, 1
  store i32 %72, i32* %2, align 4
  br label %50

73:                                               ; preds = %50
  %74 = load i32, i32* %6, align 4
  %75 = load i32, i32* %1, align 4
  %76 = sext i32 %75 to i64
  %77 = getelementptr inbounds [3 x [2 x i32]], [3 x [2 x i32]]* %5, i64 0, i64 %76
  %78 = getelementptr inbounds [2 x i32], [2 x i32]* %77, i64 0, i64 0
  store i32 %74, i32* %78, align 8
  %79 = load i32, i32* %3, align 4
  %80 = load i32, i32* %1, align 4
  %81 = sext i32 %80 to i64
  %82 = getelementptr inbounds [3 x [2 x i32]], [3 x [2 x i32]]* %5, i64 0, i64 %81
  %83 = getelementptr inbounds [2 x i32], [2 x i32]* %82, i64 0, i64 1
  store i32 %79, i32* %83, align 4
  %84 = load i32, i32* %6, align 4
  %85 = sext i32 %84 to i64
  %86 = getelementptr inbounds [100000 x %struct.student], [100000 x %struct.student]* %7, i64 0, i64 %85
  %87 = getelementptr inbounds %struct.student, %struct.student* %86, i32 0, i32 3
  store i32 0, i32* %87, align 4
  br label %88

88:                                               ; preds = %73
  %89 = load i32, i32* %1, align 4
  %90 = add nsw i32 %89, 1
  store i32 %90, i32* %1, align 4
  br label %46

91:                                               ; preds = %46
  store i32 0, i32* %1, align 4
  br label %92

92:                                               ; preds = %108, %91
  %93 = load i32, i32* %1, align 4
  %94 = icmp slt i32 %93, 3
  br i1 %94, label %95, label %111

95:                                               ; preds = %92
  %96 = load i32, i32* %1, align 4
  %97 = sext i32 %96 to i64
  %98 = getelementptr inbounds [3 x [2 x i32]], [3 x [2 x i32]]* %5, i64 0, i64 %97
  %99 = getelementptr inbounds [2 x i32], [2 x i32]* %98, i64 0, i64 0
  %100 = load i32, i32* %99, align 8
  %101 = add nsw i32 %100, 1
  %102 = load i32, i32* %1, align 4
  %103 = sext i32 %102 to i64
  %104 = getelementptr inbounds [3 x [2 x i32]], [3 x [2 x i32]]* %5, i64 0, i64 %103
  %105 = getelementptr inbounds [2 x i32], [2 x i32]* %104, i64 0, i64 1
  %106 = load i32, i32* %105, align 4
  %107 = call i32 (i8*, ...) @printf(i8* getelementptr inbounds ([7 x i8], [7 x i8]* @.str.2, i64 0, i64 0), i32 %101, i32 %106)
  br label %108

108:                                              ; preds = %95
  %109 = load i32, i32* %1, align 4
  %110 = add nsw i32 %109, 1
  store i32 %110, i32* %1, align 4
  br label %92

111:                                              ; preds = %92
  ret void
}

declare dso_local i32 @__isoc99_scanf(i8*, ...) #1

declare dso_local i32 @printf(i8*, ...) #1


!llvm.module.flags = !{!0}
!llvm.ident = !{!1}

!0 = !{i32 1, !"wchar_size", i32 4}
!1 = !{!"clang version 10.0.0-4ubuntu1 "}
